target datalayout = "e-m:e-p270:32:32-p271:32:32-p272:64:64-i64:64-i128:128-f80:128-n8:16:32:64-S128"
target triple = "x86_64-pc-linux-gnu"

%struct.AVFifo = type { ptr, i64, i64, i64, i64, i32, i32, i64 }

; Function Attrs: nounwind uwtable
define i64 @av_fifo_can_read(ptr noundef %0) #0 {
  %2 = alloca i64, align 8
  %3 = alloca ptr, align 8
  store ptr %0, ptr %3, align 8, !tbaa !12
  %4 = load ptr, ptr %3, align 8, !tbaa !12
  %5 = getelementptr inbounds nuw %struct.AVFifo, ptr %4, i32 0, i32 4
  %6 = load i64, ptr %5, align 8, !tbaa !22
  %7 = load ptr, ptr %3, align 8, !tbaa !12
  %8 = getelementptr inbounds nuw %struct.AVFifo, ptr %7, i32 0, i32 3
  %9 = load i64, ptr %8, align 8, !tbaa !23
  %10 = icmp ule i64 %6, %9
  br i1 %10, label %11, label %28

11:                                               ; preds = %1
  %12 = load ptr, ptr %3, align 8, !tbaa !12
  %13 = getelementptr inbounds nuw %struct.AVFifo, ptr %12, i32 0, i32 5
  %14 = load i32, ptr %13, align 8, !tbaa !19
  %15 = icmp ne i32 %14, 0
  br i1 %15, label %28, label %16

16:                                               ; preds = %11
  %17 = load ptr, ptr %3, align 8, !tbaa !12
  %18 = getelementptr inbounds nuw %struct.AVFifo, ptr %17, i32 0, i32 2
  %19 = load i64, ptr %18, align 8, !tbaa !17
  %20 = load ptr, ptr %3, align 8, !tbaa !12
  %21 = getelementptr inbounds nuw %struct.AVFifo, ptr %20, i32 0, i32 3
  %22 = load i64, ptr %21, align 8, !tbaa !23
  %23 = sub i64 %19, %22
  %24 = load ptr, ptr %3, align 8, !tbaa !12
  %25 = getelementptr inbounds nuw %struct.AVFifo, ptr %24, i32 0, i32 4
  %26 = load i64, ptr %25, align 8, !tbaa !22
  %27 = add i64 %23, %26
  store i64 %27, ptr %2, align 8
  br label %36

28:                                               ; preds = %11, %1
  %29 = load ptr, ptr %3, align 8, !tbaa !12
  %30 = getelementptr inbounds nuw %struct.AVFifo, ptr %29, i32 0, i32 4
  %31 = load i64, ptr %30, align 8, !tbaa !22
  %32 = load ptr, ptr %3, align 8, !tbaa !12
  %33 = getelementptr inbounds nuw %struct.AVFifo, ptr %32, i32 0, i32 3
  %34 = load i64, ptr %33, align 8, !tbaa !23
  %35 = sub i64 %31, %34
  store i64 %35, ptr %2, align 8
  br label %36

36:                                               ; preds = %28, %16
  %37 = load i64, ptr %2, align 8
  ret i64 %37
}

; Function Attrs: nounwind uwtable
define internal i32 @fifo_peek_common(ptr noundef %0, ptr noundef %1, ptr noundef %2, i64 noundef %3, ptr noundef %4, ptr noundef %5) #0 {
  %7 = alloca i32, align 4
  %8 = alloca ptr, align 8
  %9 = alloca ptr, align 8
  %10 = alloca ptr, align 8
  %11 = alloca i64, align 8
  %12 = alloca ptr, align 8
  %13 = alloca ptr, align 8
  %14 = alloca i64, align 8
  %15 = alloca i64, align 8
  %16 = alloca i64, align 8
  %17 = alloca i32, align 4
  %18 = alloca i32, align 4
  %19 = alloca i64, align 8
  %20 = alloca ptr, align 8
  store ptr %0, ptr %8, align 8, !tbaa !12
  store ptr %1, ptr %9, align 8, !tbaa !24
  store ptr %2, ptr %10, align 8, !tbaa !25
  store i64 %3, ptr %11, align 8, !tbaa !4
  store ptr %4, ptr %12, align 8, !tbaa !10
  store ptr %5, ptr %13, align 8, !tbaa !10
  call void @llvm.lifetime.start.p0(i64 8, ptr %14) #5
  %21 = load ptr, ptr %10, align 8, !tbaa !25
  %22 = load i64, ptr %21, align 8, !tbaa !4
  store i64 %22, ptr %14, align 8, !tbaa !4
  call void @llvm.lifetime.start.p0(i64 8, ptr %15) #5
  %23 = load ptr, ptr %8, align 8, !tbaa !12
  %24 = getelementptr inbounds nuw %struct.AVFifo, ptr %23, i32 0, i32 3
  %25 = load i64, ptr %24, align 8, !tbaa !23
  store i64 %25, ptr %15, align 8, !tbaa !4
  call void @llvm.lifetime.start.p0(i64 8, ptr %16) #5
  %26 = load ptr, ptr %8, align 8, !tbaa !12
  %27 = call i64 @av_fifo_can_read(ptr noundef %26)
  store i64 %27, ptr %16, align 8, !tbaa !4
  call void @llvm.lifetime.start.p0(i64 4, ptr %17) #5
  store i32 0, ptr %17, align 4, !tbaa !8
  %28 = load i64, ptr %11, align 8, !tbaa !4
  %29 = load i64, ptr %16, align 8, !tbaa !4
  %30 = icmp ugt i64 %28, %29
  br i1 %30, label %37, label %31

31:                                               ; preds = %6
  %32 = load i64, ptr %14, align 8, !tbaa !4
  %33 = load i64, ptr %16, align 8, !tbaa !4
  %34 = load i64, ptr %11, align 8, !tbaa !4
  %35 = sub i64 %33, %34
  %36 = icmp ugt i64 %32, %35
  br i1 %36, label %37, label %39

37:                                               ; preds = %31, %6
  %38 = load ptr, ptr %10, align 8, !tbaa !25
  store i64 0, ptr %38, align 8, !tbaa !4
  store i32 -22, ptr %7, align 4
  store i32 1, ptr %18, align 4
  br label %142

39:                                               ; preds = %31
  %40 = load i64, ptr %15, align 8, !tbaa !4
  %41 = load ptr, ptr %8, align 8, !tbaa !12
  %42 = getelementptr inbounds nuw %struct.AVFifo, ptr %41, i32 0, i32 2
  %43 = load i64, ptr %42, align 8, !tbaa !17
  %44 = load i64, ptr %11, align 8, !tbaa !4
  %45 = sub i64 %43, %44
  %46 = icmp uge i64 %40, %45
  br i1 %46, label %47, label %55

47:                                               ; preds = %39
  %48 = load ptr, ptr %8, align 8, !tbaa !12
  %49 = getelementptr inbounds nuw %struct.AVFifo, ptr %48, i32 0, i32 2
  %50 = load i64, ptr %49, align 8, !tbaa !17
  %51 = load i64, ptr %11, align 8, !tbaa !4
  %52 = sub i64 %50, %51
  %53 = load i64, ptr %15, align 8, !tbaa !4
  %54 = sub i64 %53, %52
  store i64 %54, ptr %15, align 8, !tbaa !4
  br label %59

55:                                               ; preds = %39
  %56 = load i64, ptr %11, align 8, !tbaa !4
  %57 = load i64, ptr %15, align 8, !tbaa !4
  %58 = add i64 %57, %56
  store i64 %58, ptr %15, align 8, !tbaa !4
  br label %59

59:                                               ; preds = %55, %47
  br label %60

60:                                               ; preds = %135, %59
  %61 = load i64, ptr %14, align 8, !tbaa !4
  %62 = icmp ugt i64 %61, 0
  br i1 %62, label %63, label %136

63:                                               ; preds = %60
  call void @llvm.lifetime.start.p0(i64 8, ptr %19) #5
  %64 = load ptr, ptr %8, align 8, !tbaa !12
  %65 = getelementptr inbounds nuw %struct.AVFifo, ptr %64, i32 0, i32 2
  %66 = load i64, ptr %65, align 8, !tbaa !17
  %67 = load i64, ptr %15, align 8, !tbaa !4
  %68 = sub i64 %66, %67
  %69 = load i64, ptr %14, align 8, !tbaa !4
  %70 = icmp ugt i64 %68, %69
  br i1 %70, label %71, label %73

71:                                               ; preds = %63
  %72 = load i64, ptr %14, align 8, !tbaa !4
  br label %79

73:                                               ; preds = %63
  %74 = load ptr, ptr %8, align 8, !tbaa !12
  %75 = getelementptr inbounds nuw %struct.AVFifo, ptr %74, i32 0, i32 2
  %76 = load i64, ptr %75, align 8, !tbaa !17
  %77 = load i64, ptr %15, align 8, !tbaa !4
  %78 = sub i64 %76, %77
  br label %79

79:                                               ; preds = %73, %71
  %80 = phi i64 [ %72, %71 ], [ %78, %73 ]
  store i64 %80, ptr %19, align 8, !tbaa !4
  call void @llvm.lifetime.start.p0(i64 8, ptr %20) #5
  %81 = load ptr, ptr %8, align 8, !tbaa !12
  %82 = getelementptr inbounds nuw %struct.AVFifo, ptr %81, i32 0, i32 0
  %83 = load ptr, ptr %82, align 8, !tbaa !14
  %84 = load i64, ptr %15, align 8, !tbaa !4
  %85 = load ptr, ptr %8, align 8, !tbaa !12
  %86 = getelementptr inbounds nuw %struct.AVFifo, ptr %85, i32 0, i32 1
  %87 = load i64, ptr %86, align 8, !tbaa !18
  %88 = mul i64 %84, %87
  %89 = getelementptr inbounds nuw i8, ptr %83, i64 %88
  store ptr %89, ptr %20, align 8, !tbaa !24
  %90 = load ptr, ptr %12, align 8, !tbaa !10
  %91 = icmp ne ptr %90, null
  br i1 %91, label %92, label %104

92:                                               ; preds = %79
  %93 = load ptr, ptr %12, align 8, !tbaa !10
  %94 = load ptr, ptr %13, align 8, !tbaa !10
  %95 = load ptr, ptr %20, align 8, !tbaa !24
  %96 = call i32 %93(ptr noundef %94, ptr noundef %95, ptr noundef %19)
  store i32 %96, ptr %17, align 4, !tbaa !8
  %97 = load i32, ptr %17, align 4, !tbaa !8
  %98 = icmp slt i32 %97, 0
  br i1 %98, label %102, label %99

99:                                               ; preds = %92
  %100 = load i64, ptr %19, align 8, !tbaa !4
  %101 = icmp eq i64 %100, 0
  br i1 %101, label %102, label %103

102:                                              ; preds = %99, %92
  store i32 3, ptr %18, align 4
  br label %133

103:                                              ; preds = %99
  br label %119

104:                                              ; preds = %79
  %105 = load ptr, ptr %9, align 8, !tbaa !24
  %106 = load ptr, ptr %20, align 8, !tbaa !24
  %107 = load i64, ptr %19, align 8, !tbaa !4
  %108 = load ptr, ptr %8, align 8, !tbaa !12
  %109 = getelementptr inbounds nuw %struct.AVFifo, ptr %108, i32 0, i32 1
  %110 = load i64, ptr %109, align 8, !tbaa !18
  %111 = mul i64 %107, %110
  call void @llvm.memcpy.p0.p0.i64(ptr align 1 %105, ptr align 1 %106, i64 %111, i1 false)
  %112 = load i64, ptr %19, align 8, !tbaa !4
  %113 = load ptr, ptr %8, align 8, !tbaa !12
  %114 = getelementptr inbounds nuw %struct.AVFifo, ptr %113, i32 0, i32 1
  %115 = load i64, ptr %114, align 8, !tbaa !18
  %116 = mul i64 %112, %115
  %117 = load ptr, ptr %9, align 8, !tbaa !24
  %118 = getelementptr inbounds nuw i8, ptr %117, i64 %116
  store ptr %118, ptr %9, align 8, !tbaa !24
  br label %119

119:                                              ; preds = %104, %103
  %120 = load i64, ptr %19, align 8, !tbaa !4
  %121 = load i64, ptr %15, align 8, !tbaa !4
  %122 = add i64 %121, %120
  store i64 %122, ptr %15, align 8, !tbaa !4
  %123 = load i64, ptr %15, align 8, !tbaa !4
  %124 = load ptr, ptr %8, align 8, !tbaa !12
  %125 = getelementptr inbounds nuw %struct.AVFifo, ptr %124, i32 0, i32 2
  %126 = load i64, ptr %125, align 8, !tbaa !17
  %127 = icmp uge i64 %123, %126
  br i1 %127, label %128, label %129

128:                                              ; preds = %119
  store i64 0, ptr %15, align 8, !tbaa !4
  br label %129

129:                                              ; preds = %128, %119
  %130 = load i64, ptr %19, align 8, !tbaa !4
  %131 = load i64, ptr %14, align 8, !tbaa !4
  %132 = sub i64 %131, %130
  store i64 %132, ptr %14, align 8, !tbaa !4
  store i32 0, ptr %18, align 4
  br label %133

133:                                              ; preds = %129, %102
  call void @llvm.lifetime.end.p0(i64 8, ptr %20) #5
  call void @llvm.lifetime.end.p0(i64 8, ptr %19) #5
  %134 = load i32, ptr %18, align 4
  switch i32 %134, label %144 [
    i32 0, label %135
    i32 3, label %136
  ]

135:                                              ; preds = %133
  br label %60, !llvm.loop !29

136:                                              ; preds = %133, %60
  %137 = load i64, ptr %14, align 8, !tbaa !4
  %138 = load ptr, ptr %10, align 8, !tbaa !25
  %139 = load i64, ptr %138, align 8, !tbaa !4
  %140 = sub i64 %139, %137
  store i64 %140, ptr %138, align 8, !tbaa !4
  %141 = load i32, ptr %17, align 4, !tbaa !8
  store i32 %141, ptr %7, align 4
  store i32 1, ptr %18, align 4
  br label %142

142:                                              ; preds = %136, %37
  call void @llvm.lifetime.end.p0(i64 4, ptr %17) #5
  call void @llvm.lifetime.end.p0(i64 8, ptr %16) #5
  call void @llvm.lifetime.end.p0(i64 8, ptr %15) #5
  call void @llvm.lifetime.end.p0(i64 8, ptr %14) #5
  %143 = load i32, ptr %7, align 4
  ret i32 %143

144:                                              ; preds = %133
  unreachable
}