; Function Attrs: nounwind uwtable
define internal fastcc i32 @fifo_peek_common(ptr noundef readonly captures(none) %0, ptr noundef writeonly captures(none) %1, ptr noundef captures(none) %2, i64 noundef %3, ptr noundef readonly captures(address_is_null) %4, ptr noundef %5) unnamed_addr #0 {
  %7 = alloca i64, align 8
  %8 = load i64, ptr %2, align 8, !tbaa !19
  %9 = getelementptr inbounds nuw i8, ptr %0, i64 24
  %10 = load i64, ptr %9, align 8, !tbaa !18
  %11 = getelementptr inbounds nuw i8, ptr %0, i64 32
  %12 = load i64, ptr %11, align 8, !tbaa !17
  %.not.i = icmp ugt i64 %12, %10
  br i1 %.not.i, label %21, label %13

13:                                               ; preds = %6
  %14 = getelementptr inbounds nuw i8, ptr %0, i64 40
  %15 = load i32, ptr %14, align 8, !tbaa !14
  %.not10.i = icmp eq i32 %15, 0
  br i1 %.not10.i, label %16, label %21

16:                                               ; preds = %13
  %17 = getelementptr inbounds nuw i8, ptr %0, i64 16
  %18 = load i64, ptr %17, align 8, !tbaa !12
  %19 = sub i64 %12, %10
  %20 = add i64 %19, %18
  br label %av_fifo_can_read.exit

21:                                               ; preds = %13, %6
  %22 = sub i64 %12, %10
  br label %av_fifo_can_read.exit

av_fifo_can_read.exit:                            ; preds = %16, %21
  %.0.i = phi i64 [ %22, %21 ], [ %20, %16 ]
  %23 = icmp ugt i64 %3, %.0.i
  %24 = sub nuw i64 %.0.i, %3
  %25 = icmp ugt i64 %8, %24
  %or.cond70 = select i1 %23, i1 true, i1 %25
  br i1 %or.cond70, label %61, label %26

26:                                               ; preds = %av_fifo_can_read.exit
  %27 = getelementptr inbounds nuw i8, ptr %0, i64 16
  %.not6680 = icmp eq i64 %8, 0
  br i1 %.not6680, label %.loopexit, label %.lr.ph

.lr.ph:                                           ; preds = %26
  %28 = load i64, ptr %27, align 8, !tbaa !12
  %29 = sub i64 %28, %3
  %.not = icmp ult i64 %10, %29
  %30 = sub i64 0, %29
  %.051.p = select i1 %.not, i64 %3, i64 %30
  %.051 = add i64 %.051.p, %10
  %31 = getelementptr inbounds nuw i8, ptr %0, i64 8
  %.not67 = icmp eq ptr %4, null
  br i1 %.not67, label %.lr.ph.split.us.preheader, label %.lr.ph.split

.lr.ph.split.us.preheader:                        ; preds = %.lr.ph
  %.pre = load i64, ptr %31, align 8, !tbaa !13
  br label %.lr.ph.split.us

.lr.ph.split.us:                                  ; preds = %.lr.ph.split.us.preheader, %.lr.ph.split.us
  %32 = phi i64 [ %39, %.lr.ph.split.us ], [ %.pre, %.lr.ph.split.us.preheader ]
  %33 = phi i64 [ %43, %.lr.ph.split.us ], [ %28, %.lr.ph.split.us.preheader ]
  %.04883.us = phi ptr [ %41, %.lr.ph.split.us ], [ %1, %.lr.ph.split.us.preheader ]
  %.15282.us = phi i64 [ %spec.store.select.us, %.lr.ph.split.us ], [ %.051, %.lr.ph.split.us.preheader ]
  %.05481.us = phi i64 [ %44, %.lr.ph.split.us ], [ %8, %.lr.ph.split.us.preheader ]
  call void @llvm.lifetime.start.p0(i64 8, ptr nonnull %7) #10
  %34 = sub i64 %33, %.15282.us
  %.054..us = tail call i64 @llvm.umin.i64(i64 %34, i64 %.05481.us)
  %35 = load ptr, ptr %0, align 8, !tbaa !4
  %36 = mul i64 %32, %.15282.us
  %37 = getelementptr inbounds nuw i8, ptr %35, i64 %36
  %38 = mul i64 %32, %.054..us
  tail call void @llvm.memcpy.p0.p0.i64(ptr align 1 %.04883.us, ptr align 1 %37, i64 %38, i1 false)
  %39 = load i64, ptr %31, align 8, !tbaa !13
  %40 = mul i64 %39, %.054..us
  %41 = getelementptr inbounds nuw i8, ptr %.04883.us, i64 %40
  %42 = add i64 %.054..us, %.15282.us
  %43 = load i64, ptr %27, align 8, !tbaa !12
  %.not68.us = icmp ult i64 %42, %43
  %spec.store.select.us = select i1 %.not68.us, i64 %42, i64 0
  %44 = sub i64 %.05481.us, %.054..us
  call void @llvm.lifetime.end.p0(i64 8, ptr nonnull %7) #10
  %.not66.us = icmp eq i64 %44, 0
  br i1 %.not66.us, label %.loopexit, label %.lr.ph.split.us

.lr.ph.split:                                     ; preds = %.lr.ph, %55
  %45 = phi i64 [ %57, %55 ], [ %28, %.lr.ph ]
  %.15282 = phi i64 [ %spec.store.select, %55 ], [ %.051, %.lr.ph ]
  %.05481 = phi i64 [ %58, %55 ], [ %8, %.lr.ph ]
  call void @llvm.lifetime.start.p0(i64 8, ptr nonnull %7) #10
  %46 = sub i64 %45, %.15282
  %.054. = call i64 @llvm.umin.i64(i64 %46, i64 %.05481)
  store i64 %.054., ptr %7, align 8, !tbaa !19
  %47 = load ptr, ptr %0, align 8, !tbaa !4
  %48 = load i64, ptr %31, align 8, !tbaa !13
  %49 = mul i64 %48, %.15282
  %50 = getelementptr inbounds nuw i8, ptr %47, i64 %49
  %51 = call i32 %4(ptr noundef %5, ptr noundef %50, ptr noundef nonnull %7) #10
  %52 = icmp slt i32 %51, 0
  %53 = load i64, ptr %7, align 8
  %54 = icmp eq i64 %53, 0
  %or.cond = select i1 %52, i1 true, i1 %54
  br i1 %or.cond, label %.thread, label %55

.thread:                                          ; preds = %.lr.ph.split
  call void @llvm.lifetime.end.p0(i64 8, ptr nonnull %7) #10
  br label %.loopexit

55:                                               ; preds = %.lr.ph.split
  %56 = add i64 %53, %.15282
  %57 = load i64, ptr %27, align 8, !tbaa !12
  %.not68 = icmp ult i64 %56, %57
  %spec.store.select = select i1 %.not68, i64 %56, i64 0
  %58 = sub i64 %.05481, %53
  call void @llvm.lifetime.end.p0(i64 8, ptr nonnull %7) #10
  %.not66 = icmp eq i64 %58, 0
  br i1 %.not66, label %.loopexit, label %.lr.ph.split

.loopexit:                                        ; preds = %55, %.lr.ph.split.us, %26, %.thread
  %.05479 = phi i64 [ %.05481, %.thread ], [ 0, %26 ], [ 0, %.lr.ph.split.us ], [ 0, %55 ]
  %.1 = phi i32 [ %51, %.thread ], [ 0, %26 ], [ 0, %.lr.ph.split.us ], [ %51, %55 ]
  %59 = load i64, ptr %2, align 8, !tbaa !19
  %60 = sub i64 %59, %.05479
  br label %61

61:                                               ; preds = %av_fifo_can_read.exit, %.loopexit
  %storemerge = phi i64 [ %60, %.loopexit ], [ 0, %av_fifo_can_read.exit ]
  %.0 = phi i32 [ %.1, %.loopexit ], [ -22, %av_fifo_can_read.exit ]
  store i64 %storemerge, ptr %2, align 8, !tbaa !19
  ret i32 %.0
}